; Function Attrs: mustprogress nounwind uwtable
define internal fastcc i64 @"_ZZN5clang6Parser26ParseMicrosoftAsmStatementENS_14SourceLocationEENK3$_0clEv"(ptr nocapture noundef nonnull readonly align 8 dereferenceable(72) %0) unnamed_addr #0 align 2 {
  %2 = alloca %"class.llvm::StringRef", align 8
  %3 = alloca %"class.llvm::ArrayRef.1605", align 8
  %4 = alloca %"class.llvm::ArrayRef.1605", align 8
  %5 = alloca %"class.llvm::ArrayRef.1606", align 8
  %6 = load ptr, ptr %0, align 8
  %7 = getelementptr inbounds nuw i8, ptr %6, i64 88
  %8 = load ptr, ptr %7, align 8
  %9 = getelementptr inbounds nuw i8, ptr %0, i64 8
  %10 = load ptr, ptr %9, align 8
  %.sroa.02.0.copyload = load i32, ptr %10, align 4
  %11 = getelementptr inbounds nuw i8, ptr %0, i64 16
  %12 = load ptr, ptr %11, align 8
  %13 = load ptr, ptr %12, align 8
  %.sroa.01.0.copyload = load i32, ptr %13, align 4
  %14 = getelementptr inbounds nuw i8, ptr %0, i64 24
  %15 = load ptr, ptr %14, align 8
  %16 = load ptr, ptr %15, align 8
  %17 = tail call noundef i64 @_ZNK4llvm15SmallVectorBaseIjE4sizeEv(ptr noundef nonnull align 8 dereferenceable(16) %15) #14
  %18 = getelementptr inbounds nuw i8, ptr %0, i64 32
  %19 = load ptr, ptr %18, align 8
  %20 = load ptr, ptr %19, align 8
  %21 = tail call noundef i64 @_ZNK4llvm15SmallVectorBaseImE4sizeEv(ptr noundef nonnull align 8 dereferenceable(24) %19) #14
  store ptr %20, ptr %2, align 8
  %22 = getelementptr inbounds nuw i8, ptr %2, i64 8
  store i64 %21, ptr %22, align 8
  %23 = getelementptr inbounds nuw i8, ptr %0, i64 40
  %24 = load ptr, ptr %23, align 8
  %25 = load ptr, ptr %24, align 8
  store ptr %25, ptr %3, align 8
  %26 = getelementptr inbounds nuw i8, ptr %3, i64 8
  %27 = tail call noundef i64 @_ZNK4llvm15SmallVectorBaseIjE4sizeEv(ptr noundef nonnull align 8 dereferenceable(16) %24) #14
  store i64 %27, ptr %26, align 8
  %28 = getelementptr inbounds nuw i8, ptr %0, i64 48
  %29 = load ptr, ptr %28, align 8
  %30 = load ptr, ptr %29, align 8
  store ptr %30, ptr %4, align 8
  %31 = getelementptr inbounds nuw i8, ptr %4, i64 8
  %32 = tail call noundef i64 @_ZNK4llvm15SmallVectorBaseIjE4sizeEv(ptr noundef nonnull align 8 dereferenceable(16) %29) #14
  store i64 %32, ptr %31, align 8
  %33 = getelementptr inbounds nuw i8, ptr %0, i64 56
  %34 = load ptr, ptr %33, align 8
  %35 = load ptr, ptr %34, align 8
  store ptr %35, ptr %5, align 8
  %36 = getelementptr inbounds nuw i8, ptr %5, i64 8
  %37 = tail call noundef i64 @_ZNK4llvm15SmallVectorBaseIjE4sizeEv(ptr noundef nonnull align 8 dereferenceable(16) %34) #14
  store i64 %37, ptr %36, align 8
  %38 = getelementptr inbounds nuw i8, ptr %0, i64 64
  %39 = load ptr, ptr %38, align 8
  %.sroa.0.0.copyload = load i32, ptr %39, align 4
  %40 = tail call i64 @_ZN5clang4Sema14ActOnMSAsmStmtENS_14SourceLocationES1_N4llvm8ArrayRefINS_5TokenEEENS2_9StringRefEjjNS3_IS6_EES7_NS3_IPNS_4ExprEEES1_(ptr noundef nonnull align 8 dereferenceable(17560) %8, i32 %.sroa.02.0.copyload, i32 %.sroa.01.0.copyload, ptr %16, i64 %17, ptr noundef nonnull byval(%"class.llvm::StringRef") align 8 %2, i32 noundef 0, i32 noundef 0, ptr noundef nonnull byval(%"class.llvm::ArrayRef.1605") align 8 %3, ptr noundef nonnull byval(%"class.llvm::ArrayRef.1605") align 8 %4, ptr noundef nonnull byval(%"class.llvm::ArrayRef.1606") align 8 %5, i32 %.sroa.0.0.copyload) #14
  ret i64 %40
}